; Function Attrs: nounwind sspstrong uwtable
define dso_local i32 @rb_spawn(i32 noundef %0, ptr noundef readonly captures(none) %1) local_unnamed_addr #1 {
  %3 = tail call i64 @rb_data_typed_object_zalloc(i64 noundef 0, i64 noundef 176, ptr noundef nonnull @exec_arg_data_type) #27
  %4 = inttoptr i64 %3 to ptr
  %5 = getelementptr inbounds nuw i8, ptr %4, i64 24
  %6 = load i64, ptr %5, align 8, !tbaa !44
  %7 = and i64 %6, 2
  %.not.i.i.i = icmp eq i64 %7, 0
  %8 = getelementptr i8, ptr %4, i64 32
  br i1 %.not.i.i.i, label %9, label %RTYPEDDATA_GET_DATA.exit.i.i

9:                                                ; preds = %2
  %10 = load ptr, ptr %8, align 8, !tbaa !48
  br label %RTYPEDDATA_GET_DATA.exit.i.i

RTYPEDDATA_GET_DATA.exit.i.i:                     ; preds = %9, %2
  %11 = phi ptr [ %10, %9 ], [ %8, %2 ]
  tail call fastcc void @rb_execarg_init(i32 noundef %0, ptr noundef readonly %1, i32 noundef 1, i64 noundef %3)
  %12 = getelementptr inbounds nuw i8, ptr %11, i64 64
  %13 = load i16, ptr %12, align 8
  %14 = and i16 %13, 8192
  %.not9.i.i = icmp eq i16 %14, 0
  br i1 %.not9.i.i, label %rb_spawn_internal.exit, label %15

15:                                               ; preds = %RTYPEDDATA_GET_DATA.exit.i.i
  %16 = load i64, ptr @rb_eArgError, align 8, !tbaa !43
  tail call void (i64, ptr, ...) @rb_raise(i64 noundef %16, ptr noundef nonnull @.str.12) #29
  unreachable

rb_spawn_internal.exit:                           ; preds = %RTYPEDDATA_GET_DATA.exit.i.i
  %17 = tail call fastcc i32 @rb_execarg_spawn(i64 noundef %3, ptr noundef null, i64 noundef 0)
  ret i32 %17
}